target datalayout = "e-m:e-p270:32:32-p271:32:32-p272:64:64-i64:64-i128:128-f80:128-n8:16:32:64-S128"
target triple = "x86_64-pc-linux-gnu"

; Function Attrs: nounwind null_pointer_is_valid sspstrong uwtable
define internal i32 @uncompress_subclass(i8 noundef zeroext %0) #4 {
  %2 = alloca i32, align 4
  %3 = alloca i8, align 1
  store i8 %0, ptr %3, align 1
  %4 = load i8, ptr %3, align 1
  %5 = zext i8 %4 to i32
  %6 = and i32 %5, 128
  %7 = icmp ne i32 %6, 0
  br i1 %7, label %8, label %17

8:                                                ; preds = %1
  %9 = load i8, ptr %3, align 1
  %10 = zext i8 %9 to i32
  %11 = icmp eq i32 %10, 255
  br i1 %11, label %12, label %13

12:                                               ; preds = %8
  store i32 -1, ptr %2, align 4
  br label %28

13:                                               ; preds = %8
  %14 = load i8, ptr %3, align 1
  %15 = zext i8 %14 to i32
  %16 = and i32 %15, 63
  store i32 %16, ptr %2, align 4
  br label %28

17:                                               ; preds = %1
  %18 = load i8, ptr %3, align 1
  %19 = zext i8 %18 to i32
  switch i32 %19, label %27 [
    i32 1, label %20
    i32 2, label %21
    i32 4, label %22
    i32 8, label %23
    i32 16, label %24
    i32 32, label %25
    i32 64, label %26
  ]

20:                                               ; preds = %17
  store i32 0, ptr %2, align 4
  br label %28

21:                                               ; preds = %17
  store i32 1, ptr %2, align 4
  br label %28

22:                                               ; preds = %17
  store i32 2, ptr %2, align 4
  br label %28

23:                                               ; preds = %17
  store i32 3, ptr %2, align 4
  br label %28

24:                                               ; preds = %17
  store i32 4, ptr %2, align 4
  br label %28

25:                                               ; preds = %17
  store i32 5, ptr %2, align 4
  br label %28

26:                                               ; preds = %17
  store i32 6, ptr %2, align 4
  br label %28

27:                                               ; preds = %17
  store i32 -1, ptr %2, align 4
  br label %28

28:                                               ; preds = %27, %26, %25, %24, %23, %22, %21, %20, %13, %12
  %29 = load i32, ptr %2, align 4
  ret i32 %29
}