; Function Attrs: mustprogress nofree norecurse nosync nounwind null_pointer_is_valid sspstrong willreturn memory(none) uwtable
define internal fastcc range(i32 -1, 64) i32 @uncompress_subclass(i8 noundef zeroext %0) unnamed_addr #3 {
  %.not = icmp sgt i8 %0, -1
  br i1 %.not, label %7, label %2

2:                                                ; preds = %1
  %3 = icmp eq i8 %0, -1
  br i1 %3, label %15, label %4

4:                                                ; preds = %2
  %5 = and i8 %0, 63
  %6 = zext nneg i8 %5 to i32
  br label %15

7:                                                ; preds = %1
  switch i8 %0, label %14 [
    i8 1, label %15
    i8 2, label %8
    i8 4, label %9
    i8 8, label %10
    i8 16, label %11
    i8 32, label %12
    i8 64, label %13
  ]

8:                                                ; preds = %7
  br label %15

9:                                                ; preds = %7
  br label %15

10:                                               ; preds = %7
  br label %15

11:                                               ; preds = %7
  br label %15

12:                                               ; preds = %7
  br label %15

13:                                               ; preds = %7
  br label %15

14:                                               ; preds = %7
  br label %15

15:                                               ; preds = %7, %2, %14, %13, %12, %11, %10, %9, %8, %4
  %.0 = phi i32 [ %6, %4 ], [ -1, %14 ], [ 6, %13 ], [ 5, %12 ], [ 4, %11 ], [ 3, %10 ], [ 2, %9 ], [ 1, %8 ], [ -1, %2 ], [ 0, %7 ]
  ret i32 %.0
}